target datalayout = "e-m:e-p270:32:32-p271:32:32-p272:64:64-i64:64-i128:128-f80:128-n8:16:32:64-S128"
target triple = "x86_64-pc-linux-gnu"

%class.LibRaw = type { ptr, %struct.libraw_data_t, ptr, %struct.libraw_internal_data_t, [2048 x %struct.decode], ptr, ptr, [10 x %struct.tiff_ifd_t], %class.libraw_memmgr, %struct.libraw_callbacks_t, { i64, i64 }, { i64, i64 }, { i64, i64 }, ptr, ptr, ptr, i64, ptr, ptr, ptr, ptr }
%struct.libraw_data_t = type { ptr, %struct.libraw_image_sizes_t, %struct.libraw_iparams_t, %struct.libraw_lensinfo_t, %struct.libraw_makernotes_t, %struct.libraw_shootinginfo_t, %struct.libraw_output_params_t, %struct.libraw_raw_unpack_params_t, i32, i32, %struct.libraw_colordata_t, %struct.libraw_imgother_t, %struct.libraw_thumbnail_t, %struct.libraw_thumbnail_list_t, %struct.libraw_rawdata_t, ptr }
%struct.libraw_image_sizes_t = type { i16, i16, i16, i16, i16, i16, i16, i16, i32, double, i32, [8 x [4 x i32]], i16, [2 x %struct.libraw_raw_inset_crop_t] }
%struct.libraw_raw_inset_crop_t = type { i16, i16, i16, i16 }
%struct.libraw_iparams_t = type { [4 x i8], [64 x i8], [64 x i8], [64 x i8], [64 x i8], [64 x i8], i32, i32, i32, i32, i32, i32, [6 x [6 x i8]], [6 x [6 x i8]], [5 x i8], i32, ptr }
%struct.libraw_lensinfo_t = type { float, float, float, float, float, [128 x i8], [128 x i8], [128 x i8], [128 x i8], i16, %struct.libraw_nikonlens_t, %struct.libraw_dnglens_t, %struct.libraw_makernotes_lens_t }
%struct.libraw_nikonlens_t = type { float, i8, i8, i8, i8 }
%struct.libraw_dnglens_t = type { float, float, float, float }
%struct.libraw_makernotes_lens_t = type { i64, [128 x i8], i16, i16, i64, i16, i16, [64 x i8], i16, [16 x i8], [16 x i8], float, float, float, float, float, float, float, float, float, float, float, float, float, float, float, i64, [128 x i8], i64, [128 x i8], i64, [128 x i8], i16, float }
%struct.libraw_makernotes_t = type { %struct.libraw_canon_makernotes_t, %struct.libraw_nikon_makernotes_t, %struct.libraw_hasselblad_makernotes_t, %struct.libraw_fuji_info_t, %struct.libraw_olympus_makernotes_t, %struct.libraw_sony_info_t, %struct.libraw_kodak_makernotes_t, %struct.libraw_panasonic_makernotes_t, %struct.libraw_pentax_makernotes_t, %struct.libraw_p1_makernotes_t, %struct.libraw_ricoh_makernotes_t, %struct.libraw_samsung_makernotes_t, %struct.libraw_metadata_common_t }
%struct.libraw_canon_makernotes_t = type { i32, i32, i32, i32, [4 x i32], i32, [4 x i32], i16, i16, i8, i16, i16, i16, i16, i16, i16, i16, i16, i16, i16, i16, i16, i16, i32, float, i16, i16, i16, i32, i16, i32, i32, i16, i32, %struct.libraw_area_t, %struct.libraw_area_t, %struct.libraw_area_t, %struct.libraw_area_t, %struct.libraw_area_t, [2 x i16] }
%struct.libraw_area_t = type { i16, i16, i16, i16 }
%struct.libraw_nikon_makernotes_t = type { double, i16, i16, [7 x i8], i8, i8, [13 x i8], [20 x i8], [4 x i8], [4 x i8], [4 x i8], i8, i8, i8, i8, i8, [2 x i8], i8, i8, i8, i8, i8, [4 x i8], [4 x i8], i8, i16, i32, i32, i32, i32, [4 x double], i8, i8, i8, i32, i32, i32, i8, [4 x i16], i16, %struct.libraw_sensor_highspeed_crop_t, i16, i16, i16, i32, [20 x i8], [20 x i8], i32, i16, double, double, double }
%struct.libraw_sensor_highspeed_crop_t = type { i16, i16, i16, i16 }
%struct.libraw_hasselblad_makernotes_t = type { i32, double, [8 x i8], [64 x i8], [64 x i8], i32, i32, i32, i32, [32 x i8], [64 x i8], i32, [2 x i32], [2 x i32], [4 x [3 x double]] }
%struct.libraw_fuji_info_t = type { float, i16, i16, i16, i16, i16, i16, i16, i16, [33 x i8], [33 x i8], float, i16, i16, [2 x i16], i16, i32, i32, i16, [3 x i16], i16, i16, i16, i16, i16, i32, i16, [13 x i8], [5 x i8], [5 x i8], i32, i16, i32, i16, [9 x i16], [32 x i32], i32, i32, i32, [2 x float], i32 }
%struct.libraw_olympus_makernotes_t = type { [6 x i8], i16, [2 x i32], [5 x i16], i16, [2 x i16], i16, i16, [64 x i32], [5 x double], i16, i8, [3 x i16], [3 x i32], i16, i16, i16, i16, double, [4 x i16], [2 x i32], i8, i32, i16, i16 }
%struct.libraw_sony_info_t = type { i16, i8, i8, i32, i8, i32, i8, i8, i16, [2 x i16], i8, i8, i16, [10 x i8], i8, i8, [4 x i16], i16, i8, i8, i8, i16, i32, i16, [2 x i16], i16, i16, i16, i16, i16, i16, i16, i32, float, i16, i32, i32, i16, [20 x i8], i32, i16, i32, i8, i8, i16, i16, i16, i16, i16, i16, i16, i16, i16, i32, i16, [16 x i8], float }
%struct.libraw_kodak_makernotes_t = type { i16, i16, i16, i16, i16, i16, [3 x [3 x float]], [3 x [3 x float]], [3 x [3 x float]], [3 x [3 x float]], [3 x [3 x float]], [3 x [3 x float]], i16, i16, i16, i16, float, float }
%struct.libraw_panasonic_makernotes_t = type { i16, i16, [8 x float], i32, float, [3 x i32], i16, i16, i32, i32 }
%struct.libraw_pentax_makernotes_t = type { [4 x i8], [2 x i16], [2 x i16], i16, i32, i32, i16, i16, i8, i8, i16 }
%struct.libraw_p1_makernotes_t = type { [64 x i8], [64 x i8], [256 x i8], [64 x i8] }
%struct.libraw_ricoh_makernotes_t = type { i16, [2 x i32], [2 x i32], i16, i32, i32, i32, i32, i16, i16, i16, i16, i16, i16, double, double }
%struct.libraw_samsung_makernotes_t = type { [4 x i32], [4 x i32], [2 x i32], [11 x i32], double, i32, [32 x i8] }
%struct.libraw_metadata_common_t = type { float, float, float, float, float, float, float, float, float, float, float, float, float, float, float, float, i16, [128 x i8], float, [4 x %struct.libraw_afinfo_item_t], i32 }
%struct.libraw_afinfo_item_t = type { i32, i16, i32, i32, ptr }
%struct.libraw_shootinginfo_t = type { i16, i16, i16, i16, i16, i16, i16, [64 x i8], [64 x i8] }
%struct.libraw_output_params_t = type { [4 x i32], [4 x i32], [4 x double], [6 x double], [4 x float], float, float, i32, i32, i32, i32, i32, i32, i32, ptr, ptr, ptr, ptr, i32, i32, i32, i32, i32, i32, [4 x i32], i32, i32, float, float, i32, i32, i32, i32, i32, i32, i32, i32, float, float, i32, i32 }
%struct.libraw_raw_unpack_params_t = type { i32, i32, i32, i32, i32, i32, i32, float, [5 x i8], ptr }
%struct.libraw_colordata_t = type { [65536 x i16], [4104 x i32], i32, i32, i32, [4 x i64], float, float, [8 x [8 x i16]], [4 x float], [4 x float], [3 x [4 x float]], [3 x [4 x float]], [3 x [4 x float]], [4 x [3 x float]], %struct.ph1_t, float, float, [64 x i8], [64 x i8], [64 x i8], [64 x i8], [17 x i8], [64 x i8], ptr, i32, [8 x i32], [2 x %struct.libraw_dng_color_t], %struct.libraw_dng_levels_t, [256 x [4 x i32]], [64 x [5 x float]], i32, [2 x %struct.libraw_P1_color_t], i32, i32 }
%struct.ph1_t = type { i32, i32, i32, i32, i32, i32, i32, i32, float }
%struct.libraw_dng_color_t = type { i32, i16, [4 x [4 x float]], [4 x [3 x float]], [3 x [4 x float]] }
%struct.libraw_dng_levels_t = type { i32, [4104 x i32], i32, [4104 x float], float, [4 x i32], [4 x i16], [4 x float], i32, [4 x float], [4 x float], float, float }
%struct.libraw_P1_color_t = type { [9 x float] }
%struct.libraw_imgother_t = type { float, float, float, float, i64, i32, [32 x i32], %struct.libraw_gps_info_t, [512 x i8], [64 x i8], [4 x float] }
%struct.libraw_gps_info_t = type { [3 x float], [3 x float], [3 x float], float, i8, i8, i8, i8, i8 }
%struct.libraw_thumbnail_t = type { i32, i16, i16, i32, i32, ptr }
%struct.libraw_thumbnail_list_t = type { i32, [8 x %struct.libraw_thumbnail_item_t] }
%struct.libraw_thumbnail_item_t = type { i32, i16, i16, i16, i32, i32, i64 }
%struct.libraw_rawdata_t = type { ptr, ptr, ptr, ptr, ptr, ptr, ptr, ptr, ptr, %struct.libraw_iparams_t, %struct.libraw_image_sizes_t, %struct.libraw_internal_output_params_t, %struct.libraw_colordata_t }
%struct.libraw_internal_output_params_t = type { i32, i32, i32, i16, i16 }
%struct.libraw_internal_data_t = type { %struct.internal_data_t, %struct.libraw_internal_output_params_t, %struct.output_data_t, %struct.identify_data_t, %struct.unpacker_data_t }
%struct.internal_data_t = type { ptr, ptr, i32, ptr, i64, i64, [4 x i32] }
%struct.output_data_t = type { ptr, ptr }
%struct.identify_data_t = type { i32, i64, i64, i32, i32, i32 }
%struct.unpacker_data_t = type { i16, [4 x i16], [3 x i16], i32, i64, i64, i64, i64, i64, i64, i32, i32, i32, i32, i32, i32, i32, i32, i32, i32, i32, i32, i32, i32, i32, i32, i32, i64, i32, i32, i32, i32, i32, i32, i32, i32, i32, %struct.pana8_tags_t, [16 x %struct.crx_data_header_t], i32, i32, i16, i16, i32, i32, i32, i32, i32, i32, i32, [20 x i32], i16 }
%struct.pana8_tags_t = type { [6 x i32], [6 x i16], i16, [4 x i16], [17 x i16], [17 x i16], [17 x i16], i16, i16, [5 x i64], [5 x i16], [5 x i32], [5 x i16], [5 x i16] }
%struct.crx_data_header_t = type { i32, i32, i32, i32, i32, i32, i32, i32, i32, i32, i32, i32, i32, i32, i32, i64, i32, ptr, i32, i32, i32, ptr, i32, ptr }
%struct.decode = type { [2 x ptr], i32 }
%struct.tiff_ifd_t = type { i32, i32, i32, i32, i32, i32, i32, i32, i32, i32, i32, i32, i32, i32, i32, ptr, i32, ptr, i32, i32, i32, i32, i32, i32, i32, float, i64, i64, i32, [2 x %struct.libraw_dng_color_t], %struct.libraw_dng_levels_t, i32 }
%class.libraw_memmgr = type <{ ptr, i32, [4 x i8] }>
%struct.libraw_callbacks_t = type { ptr, ptr, ptr, ptr, ptr, ptr, ptr, ptr, ptr, ptr, ptr, ptr, ptr, ptr, ptr, ptr, ptr }

@_ZTI17LibRaw_exceptions = linkonce_odr constant { ptr, ptr } { ptr getelementptr inbounds (ptr, ptr @_ZTVN10__cxxabiv116__enum_type_infoE, i64 2), ptr @_ZTS17LibRaw_exceptions }, comdat, align 8

; Function Attrs: mustprogress uwtable
define linkonce_odr void @_ZN13libraw_memmgr7mem_ptrEPv(ptr noundef nonnull align 8 dereferenceable(12) %0, ptr noundef %1) #3 comdat align 2 {
  %3 = alloca ptr, align 8
  %4 = alloca ptr, align 8
  %5 = alloca i32, align 4
  %6 = alloca i32, align 4
  store ptr %0, ptr %3, align 8, !tbaa !108
  store ptr %1, ptr %4, align 8, !tbaa !6
  %7 = load ptr, ptr %3, align 8
  %8 = load ptr, ptr %4, align 8, !tbaa !6
  %9 = icmp ne ptr %8, null
  br i1 %9, label %10, label %49

10:                                               ; preds = %2
  call void @llvm.lifetime.start.p0(i64 4, ptr %5) #18
  store i32 0, ptr %5, align 4, !tbaa !12
  br label %11

11:                                               ; preds = %31, %10
  %12 = load i32, ptr %5, align 4, !tbaa !12
  %13 = icmp slt i32 %12, 511
  br i1 %13, label %15, label %14

14:                                               ; preds = %11
  store i32 2, ptr %6, align 4
  br label %34

15:                                               ; preds = %11
  %16 = getelementptr inbounds nuw %class.libraw_memmgr, ptr %7, i32 0, i32 0
  %17 = load ptr, ptr %16, align 8, !tbaa !191
  %18 = load i32, ptr %5, align 4, !tbaa !12
  %19 = sext i32 %18 to i64
  %20 = getelementptr inbounds ptr, ptr %17, i64 %19
  %21 = load ptr, ptr %20, align 8, !tbaa !6
  %22 = icmp ne ptr %21, null
  br i1 %22, label %30, label %23

23:                                               ; preds = %15
  %24 = load ptr, ptr %4, align 8, !tbaa !6
  %25 = getelementptr inbounds nuw %class.libraw_memmgr, ptr %7, i32 0, i32 0
  %26 = load ptr, ptr %25, align 8, !tbaa !191
  %27 = load i32, ptr %5, align 4, !tbaa !12
  %28 = sext i32 %27 to i64
  %29 = getelementptr inbounds ptr, ptr %26, i64 %28
  store ptr %24, ptr %29, align 8, !tbaa !6
  store i32 1, ptr %6, align 4
  br label %34

30:                                               ; preds = %15
  br label %31

31:                                               ; preds = %30
  %32 = load i32, ptr %5, align 4, !tbaa !12
  %33 = add nsw i32 %32, 1
  store i32 %33, ptr %5, align 4, !tbaa !12
  br label %11, !llvm.loop !192

34:                                               ; preds = %23, %14
  call void @llvm.lifetime.end.p0(i64 4, ptr %5) #18
  %35 = load i32, ptr %6, align 4
  switch i32 %35, label %50 [
    i32 2, label %36
    i32 1, label %49
  ]

36:                                               ; preds = %34
  %37 = getelementptr inbounds nuw %class.libraw_memmgr, ptr %7, i32 0, i32 0
  %38 = load ptr, ptr %37, align 8, !tbaa !191
  %39 = getelementptr inbounds ptr, ptr %38, i64 511
  %40 = load ptr, ptr %39, align 8, !tbaa !6
  %41 = icmp ne ptr %40, null
  br i1 %41, label %47, label %42

42:                                               ; preds = %36
  %43 = load ptr, ptr %4, align 8, !tbaa !6
  %44 = getelementptr inbounds nuw %class.libraw_memmgr, ptr %7, i32 0, i32 0
  %45 = load ptr, ptr %44, align 8, !tbaa !191
  %46 = getelementptr inbounds ptr, ptr %45, i64 511
  store ptr %43, ptr %46, align 8, !tbaa !6
  br label %47

47:                                               ; preds = %42, %36
  %48 = call ptr @__cxa_allocate_exception(i64 4) #18
  store i32 11, ptr %48, align 16, !tbaa !43
  call void @__cxa_throw(ptr %48, ptr @_ZTI17LibRaw_exceptions, ptr null) #20
  unreachable

49:                                               ; preds = %34, %2
  ret void

50:                                               ; preds = %34
  unreachable
}

; Function Attrs: mustprogress nounwind uwtable
define linkonce_odr void @_ZN13libraw_memmgr10forget_ptrEPv(ptr noundef nonnull align 8 dereferenceable(12) %0, ptr noundef %1) #0 comdat align 2 {
  %3 = alloca ptr, align 8
  %4 = alloca ptr, align 8
  %5 = alloca i32, align 4
  %6 = alloca i32, align 4
  store ptr %0, ptr %3, align 8, !tbaa !108
  store ptr %1, ptr %4, align 8, !tbaa !6
  %7 = load ptr, ptr %3, align 8
  %8 = load ptr, ptr %4, align 8, !tbaa !6
  %9 = icmp ne ptr %8, null
  br i1 %9, label %10, label %36

10:                                               ; preds = %2
  call void @llvm.lifetime.start.p0(i64 4, ptr %5) #18
  store i32 0, ptr %5, align 4, !tbaa !12
  br label %11

11:                                               ; preds = %31, %10
  %12 = load i32, ptr %5, align 4, !tbaa !12
  %13 = icmp slt i32 %12, 512
  br i1 %13, label %15, label %14

14:                                               ; preds = %11
  store i32 2, ptr %6, align 4
  br label %34

15:                                               ; preds = %11
  %16 = getelementptr inbounds nuw %class.libraw_memmgr, ptr %7, i32 0, i32 0
  %17 = load ptr, ptr %16, align 8, !tbaa !191
  %18 = load i32, ptr %5, align 4, !tbaa !12
  %19 = sext i32 %18 to i64
  %20 = getelementptr inbounds ptr, ptr %17, i64 %19
  %21 = load ptr, ptr %20, align 8, !tbaa !6
  %22 = load ptr, ptr %4, align 8, !tbaa !6
  %23 = icmp eq ptr %21, %22
  br i1 %23, label %24, label %30

24:                                               ; preds = %15
  %25 = getelementptr inbounds nuw %class.libraw_memmgr, ptr %7, i32 0, i32 0
  %26 = load ptr, ptr %25, align 8, !tbaa !191
  %27 = load i32, ptr %5, align 4, !tbaa !12
  %28 = sext i32 %27 to i64
  %29 = getelementptr inbounds ptr, ptr %26, i64 %28
  store ptr null, ptr %29, align 8, !tbaa !6
  store i32 2, ptr %6, align 4
  br label %34

30:                                               ; preds = %15
  br label %31

31:                                               ; preds = %30
  %32 = load i32, ptr %5, align 4, !tbaa !12
  %33 = add nsw i32 %32, 1
  store i32 %33, ptr %5, align 4, !tbaa !12
  br label %11, !llvm.loop !193

34:                                               ; preds = %24, %14
  call void @llvm.lifetime.end.p0(i64 4, ptr %5) #18
  br label %35

35:                                               ; preds = %34
  br label %36

36:                                               ; preds = %35, %2
  ret void
}

; Function Attrs: mustprogress uwtable
define linkonce_odr noundef ptr @_ZN13libraw_memmgr7reallocEPvm(ptr noundef nonnull align 8 dereferenceable(12) %0, ptr noundef %1, i64 noundef %2) #3 comdat align 2 {
  %4 = alloca ptr, align 8
  %5 = alloca ptr, align 8
  %6 = alloca i64, align 8
  %7 = alloca ptr, align 8
  store ptr %0, ptr %4, align 8, !tbaa !108
  store ptr %1, ptr %5, align 8, !tbaa !6
  store i64 %2, ptr %6, align 8, !tbaa !41
  %8 = load ptr, ptr %4, align 8
  call void @llvm.lifetime.start.p0(i64 8, ptr %7) #18
  %9 = load ptr, ptr %5, align 8, !tbaa !6
  %10 = load i64, ptr %6, align 8, !tbaa !41
  %11 = getelementptr inbounds nuw %class.libraw_memmgr, ptr %8, i32 0, i32 1
  %12 = load i32, ptr %11, align 8, !tbaa !110
  %13 = zext i32 %12 to i64
  %14 = add i64 %10, %13
  %15 = call ptr @realloc(ptr noundef %9, i64 noundef %14) #22
  store ptr %15, ptr %7, align 8, !tbaa !6
  %16 = load ptr, ptr %5, align 8, !tbaa !6
  call void @_ZN13libraw_memmgr10forget_ptrEPv(ptr noundef nonnull align 8 dereferenceable(12) %8, ptr noundef %16)
  %17 = load ptr, ptr %7, align 8, !tbaa !6
  call void @_ZN13libraw_memmgr7mem_ptrEPv(ptr noundef nonnull align 8 dereferenceable(12) %8, ptr noundef %17)
  %18 = load ptr, ptr %7, align 8, !tbaa !6
  call void @llvm.lifetime.end.p0(i64 8, ptr %7) #18
  ret ptr %18
}

; Function Attrs: mustprogress uwtable
define noundef ptr @_ZN6LibRaw7reallocEPvm(ptr noundef nonnull align 8 dereferenceable(767680) %0, ptr noundef %1, i64 noundef %2) #3 align 2 {
  %4 = alloca ptr, align 8
  %5 = alloca ptr, align 8
  %6 = alloca i64, align 8
  %7 = alloca ptr, align 8
  store ptr %0, ptr %4, align 8, !tbaa !18
  store ptr %1, ptr %5, align 8, !tbaa !6
  store i64 %2, ptr %6, align 8, !tbaa !41
  %8 = load ptr, ptr %4, align 8
  call void @llvm.lifetime.start.p0(i64 8, ptr %7) #18
  %9 = getelementptr inbounds nuw %class.LibRaw, ptr %8, i32 0, i32 8
  %10 = load ptr, ptr %5, align 8, !tbaa !6
  %11 = load i64, ptr %6, align 8, !tbaa !41
  %12 = call noundef ptr @_ZN13libraw_memmgr7reallocEPvm(ptr noundef nonnull align 8 dereferenceable(12) %9, ptr noundef %10, i64 noundef %11)
  store ptr %12, ptr %7, align 8, !tbaa !6
  %13 = load ptr, ptr %7, align 8, !tbaa !6
  %14 = icmp ne ptr %13, null
  br i1 %14, label %17, label %15

15:                                               ; preds = %3
  %16 = call ptr @__cxa_allocate_exception(i64 4) #18
  store i32 1, ptr %16, align 16, !tbaa !43
  call void @__cxa_throw(ptr %16, ptr @_ZTI17LibRaw_exceptions, ptr null) #20
  unreachable

17:                                               ; preds = %3
  %18 = load ptr, ptr %7, align 8, !tbaa !6
  call void @llvm.lifetime.end.p0(i64 8, ptr %7) #18
  ret ptr %18
}