; Function Attrs: mustprogress uwtable
define noundef nonnull ptr @_ZN6LibRaw7reallocEPvm(ptr noundef nonnull readonly align 8 captures(none) dereferenceable(767680) %0, ptr noundef %1, i64 noundef %2) local_unnamed_addr #4 align 2 {
  %4 = getelementptr inbounds nuw i8, ptr %0, i64 767416
  %5 = getelementptr inbounds nuw i8, ptr %0, i64 767424
  %6 = load i32, ptr %5, align 8, !tbaa !13
  %7 = zext i32 %6 to i64
  %8 = add i64 %2, %7
  %9 = tail call ptr @realloc(ptr noundef %1, i64 noundef %8) #32
  %.not.i.i = icmp eq ptr %1, null
  br i1 %.not.i.i, label %_ZN13libraw_memmgr10forget_ptrEPv.exit.i, label %.preheader.i.i

.preheader.i.i:                                   ; preds = %3
  %10 = load ptr, ptr %4, align 8, !tbaa !16
  br label %12

11:                                               ; preds = %12
  %indvars.iv.next.i.i = add nuw nsw i64 %indvars.iv.i.i, 1
  %exitcond.not.i.i = icmp eq i64 %indvars.iv.next.i.i, 512
  br i1 %exitcond.not.i.i, label %_ZN13libraw_memmgr10forget_ptrEPv.exit.i, label %12, !llvm.loop !22

12:                                               ; preds = %11, %.preheader.i.i
  %indvars.iv.i.i = phi i64 [ 0, %.preheader.i.i ], [ %indvars.iv.next.i.i, %11 ]
  %13 = getelementptr inbounds nuw ptr, ptr %10, i64 %indvars.iv.i.i
  %14 = load ptr, ptr %13, align 8, !tbaa !19
  %15 = icmp eq ptr %14, %1
  br i1 %15, label %16, label %11

16:                                               ; preds = %12
  %17 = getelementptr inbounds nuw ptr, ptr %10, i64 %indvars.iv.i.i
  store ptr null, ptr %17, align 8, !tbaa !19
  br label %_ZN13libraw_memmgr10forget_ptrEPv.exit.i

_ZN13libraw_memmgr10forget_ptrEPv.exit.i:         ; preds = %11, %16, %3
  %.not.i5.i = icmp eq ptr %9, null
  br i1 %.not.i5.i, label %_ZN13libraw_memmgr7reallocEPvm.exit.thread, label %.preheader.i6.i

.preheader.i6.i:                                  ; preds = %_ZN13libraw_memmgr10forget_ptrEPv.exit.i
  %18 = load ptr, ptr %4, align 8, !tbaa !16
  br label %20

19:                                               ; preds = %20
  %indvars.iv.next.i8.i = add nuw nsw i64 %indvars.iv.i7.i, 1
  %exitcond.not.i9.i = icmp eq i64 %indvars.iv.next.i8.i, 511
  br i1 %exitcond.not.i9.i, label %23, label %20, !llvm.loop !17

20:                                               ; preds = %19, %.preheader.i6.i
  %indvars.iv.i7.i = phi i64 [ 0, %.preheader.i6.i ], [ %indvars.iv.next.i8.i, %19 ]
  %21 = getelementptr inbounds nuw ptr, ptr %18, i64 %indvars.iv.i7.i
  %22 = load ptr, ptr %21, align 8, !tbaa !19
  %.not10.i.i = icmp eq ptr %22, null
  br i1 %.not10.i.i, label %_ZN13libraw_memmgr7reallocEPvm.exit, label %19

23:                                               ; preds = %19
  %24 = getelementptr inbounds nuw i8, ptr %18, i64 4088
  %25 = load ptr, ptr %24, align 8, !tbaa !19
  %.not11.i.i = icmp eq ptr %25, null
  br i1 %.not11.i.i, label %26, label %27

26:                                               ; preds = %23
  store ptr %9, ptr %24, align 8, !tbaa !19
  br label %27

27:                                               ; preds = %26, %23
  %28 = tail call ptr @__cxa_allocate_exception(i64 4) #30
  store i32 11, ptr %28, align 16, !tbaa !20
  tail call void @__cxa_throw(ptr nonnull %28, ptr nonnull @_ZTI17LibRaw_exceptions, ptr null) #31
  unreachable

_ZN13libraw_memmgr7reallocEPvm.exit:              ; preds = %20
  %29 = getelementptr inbounds nuw ptr, ptr %18, i64 %indvars.iv.i7.i
  store ptr %9, ptr %29, align 8, !tbaa !19
  ret ptr %9

_ZN13libraw_memmgr7reallocEPvm.exit.thread:       ; preds = %_ZN13libraw_memmgr10forget_ptrEPv.exit.i
  %30 = tail call ptr @__cxa_allocate_exception(i64 4) #30
  store i32 1, ptr %30, align 16, !tbaa !20
  tail call void @__cxa_throw(ptr nonnull %30, ptr nonnull @_ZTI17LibRaw_exceptions, ptr null) #31
  unreachable
}